; Function Attrs: mustprogress nofree norecurse nosync nounwind willreturn memory(read, inaccessiblemem: none) uwtable
define hidden noundef zeroext i1 @_ZNK6Method17is_default_methodEv(ptr nocapture noundef nonnull readonly align 8 dereferenceable(88) %0) local_unnamed_addr #7 align 2 {
  %2 = getelementptr inbounds i8, ptr %0, i64 8
  %3 = load ptr, ptr %2, align 8
  %4 = getelementptr inbounds i8, ptr %3, i64 8
  %5 = load ptr, ptr %4, align 8
  %6 = getelementptr inbounds i8, ptr %5, i64 24
  %7 = load ptr, ptr %6, align 8
  %.not = icmp eq ptr %7, null
  br i1 %.not, label %15, label %8

8:                                                ; preds = %1
  %9 = getelementptr inbounds i8, ptr %7, i64 164
  %10 = load i32, ptr %9, align 4
  %11 = and i32 %10, 512
  %.not4 = icmp eq i32 %11, 0
  br i1 %.not4, label %15, label %12

12:                                               ; preds = %8
  %13 = getelementptr inbounds i8, ptr %0, i64 40
  %.sroa.0.0.copyload.i.i = load i32, ptr %13, align 8
  %14 = and i32 %.sroa.0.0.copyload.i.i, 1026
  %or.cond.not = icmp eq i32 %14, 0
  br i1 %or.cond.not, label %16, label %15

15:                                               ; preds = %12, %8, %1
  br label %16

16:                                               ; preds = %12, %15
  %.0 = phi i1 [ false, %15 ], [ true, %12 ]
  ret i1 %.0
}